; ModuleID = '4/1722.c'
source_filename = "4/1722.c"
target datalayout = "e-m:e-p270:32:32-p271:32:32-p272:64:64-i64:64-f80:128-n8:16:32:64-S128"
target triple = "x86_64-pc-linux-gnu"

@.str = private unnamed_addr constant [6 x i8] c"%d %d\00", align 1
@.str.1 = private unnamed_addr constant [3 x i8] c"%d\00", align 1
@.str.2 = private unnamed_addr constant [4 x i8] c"%d\0A\00", align 1

; Function Attrs: noinline nounwind uwtable
define dso_local i32 @main() #0 {
  %1 = alloca i32, align 4
  %2 = alloca i32, align 4
  %3 = alloca i32, align 4
  %4 = alloca [100 x [100 x i32]], align 16
  %5 = alloca i32, align 4
  %6 = alloca i32, align 4
  %7 = alloca i32, align 4
  %8 = alloca i32, align 4
  store i32 0, i32* %1, align 4
  %9 = call i32 (i8*, ...) @__isoc99_scanf(i8* getelementptr inbounds ([6 x i8], [6 x i8]* @.str, i64 0, i64 0), i32* %2, i32* %3)
  store i32 0, i32* %7, align 4
  store i32 0, i32* %8, align 4
  store i32 0, i32* %5, align 4
  br label %10

10:                                               ; preds = %33, %0
  %11 = load i32, i32* %5, align 4
  %12 = load i32, i32* %2, align 4
  %13 = sub nsw i32 %12, 1
  %14 = icmp sle i32 %11, %13
  br i1 %14, label %15, label %36

15:                                               ; preds = %10
  store i32 0, i32* %6, align 4
  br label %16

16:                                               ; preds = %29, %15
  %17 = load i32, i32* %6, align 4
  %18 = load i32, i32* %3, align 4
  %19 = sub nsw i32 %18, 1
  %20 = icmp sle i32 %17, %19
  br i1 %20, label %21, label %32

21:                                               ; preds = %16
  %22 = load i32, i32* %5, align 4
  %23 = sext i32 %22 to i64
  %24 = getelementptr inbounds [100 x [100 x i32]], [100 x [100 x i32]]* %4, i64 0, i64 %23
  %25 = load i32, i32* %6, align 4
  %26 = sext i32 %25 to i64
  %27 = getelementptr inbounds [100 x i32], [100 x i32]* %24, i64 0, i64 %26
  %28 = call i32 (i8*, ...) @__isoc99_scanf(i8* getelementptr inbounds ([3 x i8], [3 x i8]* @.str.1, i64 0, i64 0), i32* %27)
  br label %29

29:                                               ; preds = %21
  %30 = load i32, i32* %6, align 4
  %31 = add nsw i32 %30, 1
  store i32 %31, i32* %6, align 4
  br label %16

32:                                               ; preds = %16
  br label %33

33:                                               ; preds = %32
  %34 = load i32, i32* %5, align 4
  %35 = add nsw i32 %34, 1
  store i32 %35, i32* %5, align 4
  br label %10

36:                                               ; preds = %10
  store i32 0, i32* %5, align 4
  br label %37

37:                                               ; preds = %70, %36
  %38 = load i32, i32* %5, align 4
  %39 = load i32, i32* %3, align 4
  %40 = sub nsw i32 %39, 1
  %41 = icmp sle i32 %38, %40
  br i1 %41, label %42, label %73

42:                                               ; preds = %37
  store i32 0, i32* %7, align 4
  %43 = load i32, i32* %5, align 4
  store i32 %43, i32* %8, align 4
  store i32 0, i32* %6, align 4
  br label %44

44:                                               ; preds = %66, %42
  %45 = load i32, i32* %7, align 4
  %46 = sext i32 %45 to i64
  %47 = getelementptr inbounds [100 x [100 x i32]], [100 x [100 x i32]]* %4, i64 0, i64 %46
  %48 = load i32, i32* %8, align 4
  %49 = sext i32 %48 to i64
  %50 = getelementptr inbounds [100 x i32], [100 x i32]* %47, i64 0, i64 %49
  %51 = load i32, i32* %50, align 4
  %52 = call i32 (i8*, ...) @printf(i8* getelementptr inbounds ([4 x i8], [4 x i8]* @.str.2, i64 0, i64 0), i32 %51)
  %53 = load i32, i32* %8, align 4
  %54 = icmp eq i32 %53, 0
  br i1 %54, label %60, label %55

55:                                               ; preds = %44
  %56 = load i32, i32* %7, align 4
  %57 = load i32, i32* %2, align 4
  %58 = sub nsw i32 %57, 1
  %59 = icmp eq i32 %56, %58
  br i1 %59, label %60, label %61

60:                                               ; preds = %55, %44
  br label %69

61:                                               ; preds = %55
  %62 = load i32, i32* %7, align 4
  %63 = add nsw i32 %62, 1
  store i32 %63, i32* %7, align 4
  %64 = load i32, i32* %8, align 4
  %65 = sub nsw i32 %64, 1
  store i32 %65, i32* %8, align 4
  br label %66

66:                                               ; preds = %61
  %67 = load i32, i32* %6, align 4
  %68 = add nsw i32 %67, 1
  store i32 %68, i32* %6, align 4
  br label %44

69:                                               ; preds = %60
  br label %70

70:                                               ; preds = %69
  %71 = load i32, i32* %5, align 4
  %72 = add nsw i32 %71, 1
  store i32 %72, i32* %5, align 4
  br label %37

73:                                               ; preds = %37
  store i32 1, i32* %5, align 4
  br label %74

74:                                               ; preds = %109, %73
  %75 = load i32, i32* %5, align 4
  %76 = load i32, i32* %2, align 4
  %77 = sub nsw i32 %76, 1
  %78 = icmp sle i32 %75, %77
  br i1 %78, label %79, label %112

79:                                               ; preds = %74
  %80 = load i32, i32* %5, align 4
  store i32 %80, i32* %7, align 4
  %81 = load i32, i32* %3, align 4
  %82 = sub nsw i32 %81, 1
  store i32 %82, i32* %8, align 4
  store i32 0, i32* %6, align 4
  br label %83

83:                                               ; preds = %105, %79
  %84 = load i32, i32* %7, align 4
  %85 = sext i32 %84 to i64
  %86 = getelementptr inbounds [100 x [100 x i32]], [100 x [100 x i32]]* %4, i64 0, i64 %85
  %87 = load i32, i32* %8, align 4
  %88 = sext i32 %87 to i64
  %89 = getelementptr inbounds [100 x i32], [100 x i32]* %86, i64 0, i64 %88
  %90 = load i32, i32* %89, align 4
  %91 = call i32 (i8*, ...) @printf(i8* getelementptr inbounds ([4 x i8], [4 x i8]* @.str.2, i64 0, i64 0), i32 %90)
  %92 = load i32, i32* %7, align 4
  %93 = load i32, i32* %2, align 4
  %94 = sub nsw i32 %93, 1
  %95 = icmp eq i32 %92, %94
  br i1 %95, label %99, label %96

96:                                               ; preds = %83
  %97 = load i32, i32* %8, align 4
  %98 = icmp eq i32 %97, 0
  br i1 %98, label %99, label %100

99:                                               ; preds = %96, %83
  br label %108

100:                                              ; preds = %96
  %101 = load i32, i32* %7, align 4
  %102 = add nsw i32 %101, 1
  store i32 %102, i32* %7, align 4
  %103 = load i32, i32* %8, align 4
  %104 = sub nsw i32 %103, 1
  store i32 %104, i32* %8, align 4
  br label %105

105:                                              ; preds = %100
  %106 = load i32, i32* %6, align 4
  %107 = add nsw i32 %106, 1
  store i32 %107, i32* %6, align 4
  br label %83

108:                                              ; preds = %99
  br label %109

109:                                              ; preds = %108
  %110 = load i32, i32* %5, align 4
  %111 = add nsw i32 %110, 1
  store i32 %111, i32* %5, align 4
  br label %74

112:                                              ; preds = %74
  ret i32 0
}

declare dso_local i32 @__isoc99_scanf(i8*, ...) #1

declare dso_local i32 @printf(i8*, ...) #1


!llvm.module.flags = !{!0}
!llvm.ident = !{!1}

!0 = !{i32 1, !"wchar_size", i32 4}
!1 = !{!"clang version 10.0.0-4ubuntu1 "}
